target datalayout = "e-m:e-p270:32:32-p271:32:32-p272:64:64-i64:64-i128:128-f80:128-n8:16:32:64-S128"
target triple = "x86_64-pc-linux-gnu"

%struct.IncrementalBackupInfo = type { ptr, %struct.StringInfoData, ptr, ptr, ptr, ptr }
%struct.StringInfoData = type { ptr, i32, i32, i32 }

@CurrentMemoryContext = external global ptr, align 8

; Function Attrs: inlinehint nounwind uwtable
define internal ptr @MemoryContextSwitchTo(ptr noundef %0) #2 {
  %2 = alloca ptr, align 8
  %3 = alloca ptr, align 8
  store ptr %0, ptr %2, align 8
  call void @llvm.lifetime.start.p0(i64 8, ptr %3) #12
  %4 = load ptr, ptr @CurrentMemoryContext, align 8
  store ptr %4, ptr %3, align 8
  %5 = load ptr, ptr %2, align 8
  store ptr %5, ptr @CurrentMemoryContext, align 8
  %6 = load ptr, ptr %3, align 8
  call void @llvm.lifetime.end.p0(i64 8, ptr %3) #12
  ret ptr %6
}

; Function Attrs: nounwind uwtable
define dso_local void @FinalizeIncrementalManifest(ptr noundef %0) #0 {
  %2 = alloca ptr, align 8
  %3 = alloca ptr, align 8
  store ptr %0, ptr %2, align 8
  call void @llvm.lifetime.start.p0(i64 8, ptr %3) #12
  %4 = load ptr, ptr %2, align 8
  %5 = getelementptr inbounds nuw %struct.IncrementalBackupInfo, ptr %4, i32 0, i32 0
  %6 = load ptr, ptr %5, align 8
  %7 = call ptr @MemoryContextSwitchTo(ptr noundef %6)
  store ptr %7, ptr %3, align 8
  %8 = load ptr, ptr %2, align 8
  %9 = getelementptr inbounds nuw %struct.IncrementalBackupInfo, ptr %8, i32 0, i32 5
  %10 = load ptr, ptr %9, align 8
  %11 = load ptr, ptr %2, align 8
  %12 = getelementptr inbounds nuw %struct.IncrementalBackupInfo, ptr %11, i32 0, i32 1
  %13 = getelementptr inbounds nuw %struct.StringInfoData, ptr %12, i32 0, i32 0
  %14 = load ptr, ptr %13, align 8
  %15 = load ptr, ptr %2, align 8
  %16 = getelementptr inbounds nuw %struct.IncrementalBackupInfo, ptr %15, i32 0, i32 1
  %17 = getelementptr inbounds nuw %struct.StringInfoData, ptr %16, i32 0, i32 1
  %18 = load i32, ptr %17, align 8
  %19 = sext i32 %18 to i64
  call void @json_parse_manifest_incremental_chunk(ptr noundef %10, ptr noundef %14, i64 noundef %19, i1 noundef zeroext true)
  %20 = load ptr, ptr %2, align 8
  %21 = getelementptr inbounds nuw %struct.IncrementalBackupInfo, ptr %20, i32 0, i32 1
  %22 = getelementptr inbounds nuw %struct.StringInfoData, ptr %21, i32 0, i32 0
  %23 = load ptr, ptr %22, align 8
  call void @pfree(ptr noundef %23)
  %24 = load ptr, ptr %2, align 8
  %25 = getelementptr inbounds nuw %struct.IncrementalBackupInfo, ptr %24, i32 0, i32 1
  %26 = getelementptr inbounds nuw %struct.StringInfoData, ptr %25, i32 0, i32 0
  store ptr null, ptr %26, align 8
  %27 = load ptr, ptr %2, align 8
  %28 = getelementptr inbounds nuw %struct.IncrementalBackupInfo, ptr %27, i32 0, i32 5
  %29 = load ptr, ptr %28, align 8
  call void @json_parse_manifest_incremental_shutdown(ptr noundef %29)
  %30 = load ptr, ptr %3, align 8
  %31 = call ptr @MemoryContextSwitchTo(ptr noundef %30)
  call void @llvm.lifetime.end.p0(i64 8, ptr %3) #12
  ret void
}