; Function Attrs: nounwind uwtable
define dso_local void @FinalizeIncrementalManifest(ptr noundef captures(none) %0) local_unnamed_addr #0 {
  %2 = load ptr, ptr %0, align 8
  %3 = load ptr, ptr @CurrentMemoryContext, align 8
  store ptr %2, ptr @CurrentMemoryContext, align 8
  %4 = getelementptr inbounds nuw i8, ptr %0, i64 56
  %5 = load ptr, ptr %4, align 8
  %6 = getelementptr inbounds nuw i8, ptr %0, i64 8
  %7 = load ptr, ptr %6, align 8
  %8 = getelementptr inbounds nuw i8, ptr %0, i64 16
  %9 = load i32, ptr %8, align 8
  %10 = sext i32 %9 to i64
  tail call void @json_parse_manifest_incremental_chunk(ptr noundef %5, ptr noundef %7, i64 noundef %10, i1 noundef zeroext true) #14
  %11 = load ptr, ptr %6, align 8
  tail call void @pfree(ptr noundef %11) #14
  store ptr null, ptr %6, align 8
  %12 = load ptr, ptr %4, align 8
  tail call void @json_parse_manifest_incremental_shutdown(ptr noundef %12) #14
  store ptr %3, ptr @CurrentMemoryContext, align 8
  ret void
}